(dp0
Vengine
p1
Vpdflatex
p2
sVpackages
p3
c__builtin__
set
p4
((lp5
Va4wide
p6
aVbabel
p7
aVxspace
p8
aVamsmath
p9
aVtimes
p10
aVurl
p11
aVinputenc
p12
aValltt
p13
aVfontenc
p14
aVgraphicx
p15
aVcolor
p16
aVamssymb
p17
atp18
Rp19
sVfiles_with_guttermarks
p20
g4
((lp21
S'miniDsSmalltalk.tex'
p22
atp23
Rp24
sVsynctex
p25
I01
s.