(dp0
Vengine
p1
Vpdflatex
p2
sVpackages
p3
c__builtin__
set
p4
((lp5
Va4wide
p6
aVbabel
p7
aVxspace
p8
aVdatetime
p9
aVurl
p10
aVfontenc
p11
aVeurosym
p12
aVgraphicx
p13
aVtimes
p14
aVinputenc
p15
aVcolor
p16
atp17
Rp18
sVfiles_with_guttermarks
p19
g4
((lp20
S'sujet.tex'
p21
atp22
Rp23
sVsynctex
p24
I01
s.