(dp0
Vengine
p1
Vpdflatex
p2
sVpackages
p3
c__builtin__
set
p4
((lp5
Vhyperref
p6
aVa4wide
p7
aVbabel
p8
aVxspace
p9
aVtimes
p10
aVurl
p11
aVinputenc
p12
aVfontenc
p13
aVgraphicx
p14
atp15
Rp16
sVfiles_with_guttermarks
p17
g4
((lp18
V/Users/noury/Cours/Objet/07-Concurrence/TpSujet/./sujet.tex
p19
aS'sujet.tex'
p20
atp21
Rp22
sVsynctex
p23
I01
s.